(dp0
S'G'
p1
ccopy_reg
_reconstructor
p2
(cnetworkx.classes.graph
Graph
p3
c__builtin__
object
p4
Ntp5
Rp6
(dp7
S'adjlist_inner_dict_factory'
p8
c__builtin__
dict
p9
sS'node_dict_factory'
p10
g9
sS'edge_attr_dict_factory'
p11
g9
sS'_node'
p12
(dp13
sS'graph'
p14
(dp15
sS'_adj'
p16
(dp17
sS'adjlist_outer_dict_factory'
p18
g9
sbs.